; Function Attrs: nounwind uwtable
define i32 @LookInStream_Read2(ptr noundef %0, ptr noundef %1, i64 noundef %2, i32 noundef %3) local_unnamed_addr #0 {
  %5 = alloca i64, align 8
  %.not26 = icmp eq i64 %2, 0
  br i1 %.not26, label %.loopexit, label %.lr.ph

.lr.ph:                                           ; preds = %4
  %6 = getelementptr inbounds nuw i8, ptr %0, i64 16
  br label %7

7:                                                ; preds = %.lr.ph, %13
  %.01428 = phi ptr [ %1, %.lr.ph ], [ %14, %13 ]
  %.01627 = phi i64 [ %2, %.lr.ph ], [ %15, %13 ]
  call void @llvm.lifetime.start.p0(i64 8, ptr nonnull %5) #7
  store i64 %.01627, ptr %5, align 8, !tbaa !3
  %8 = load ptr, ptr %6, align 8, !tbaa !17
  %9 = call i32 %8(ptr noundef %0, ptr noundef %.01428, ptr noundef nonnull %5) #7
  %.not20 = icmp eq i32 %9, 0
  br i1 %.not20, label %10, label %.thread

10:                                               ; preds = %7
  %11 = load i64, ptr %5, align 8, !tbaa !3
  %12 = icmp eq i64 %11, 0
  br i1 %12, label %.thread, label %13

.thread:                                          ; preds = %7, %10
  %.2.ph = phi i32 [ %3, %10 ], [ %9, %7 ]
  call void @llvm.lifetime.end.p0(i64 8, ptr nonnull %5) #7
  br label %.loopexit

13:                                               ; preds = %10
  %14 = getelementptr inbounds nuw i8, ptr %.01428, i64 %11
  %15 = sub i64 %.01627, %11
  call void @llvm.lifetime.end.p0(i64 8, ptr nonnull %5) #7
  %.not = icmp eq i64 %15, 0
  br i1 %.not, label %.loopexit, label %7

.loopexit:                                        ; preds = %13, %4, %.thread
  %.3 = phi i32 [ %.2.ph, %.thread ], [ 0, %4 ], [ 0, %13 ]
  ret i32 %.3
}